target datalayout = "e-m:e-p270:32:32-p271:32:32-p272:64:64-i64:64-i128:128-f80:128-n8:16:32:64-S128"
target triple = "x86_64-pc-linux-gnu"

%struct.FreePageManager = type { %union.RelptrFreePageManager, %union.RelptrFreePageBtree, %union.RelptrFreePageSpanLeader, i32, i32, i64, i64, i64, i8, [129 x %union.RelptrFreePageSpanLeader] }
%union.RelptrFreePageManager = type { ptr }
%union.RelptrFreePageBtree = type { ptr }
%union.RelptrFreePageSpanLeader = type { ptr }
%struct.FreePageBtreeSearchResult = type { ptr, i64, i8, i32 }
%struct.FreePageBtree = type { %struct.FreePageBtreeHeader, %union.anon }
%struct.FreePageBtreeHeader = type { i32, i64, %union.RelptrFreePageBtree }
%union.anon = type { [254 x %struct.FreePageBtreeInternalKey] }
%struct.FreePageBtreeInternalKey = type { i64, %union.RelptrFreePageBtree }
%struct.FreePageBtreeLeafKey = type { i64, i64 }

; Function Attrs: nounwind uwtable
define internal i64 @FreePageBtreeSearchLeaf(ptr noundef %0, i64 noundef %1) #0 {
  %3 = alloca i64, align 8
  %4 = alloca ptr, align 8
  %5 = alloca i64, align 8
  %6 = alloca i64, align 8
  %7 = alloca i64, align 8
  %8 = alloca i64, align 8
  %9 = alloca i64, align 8
  %10 = alloca i32, align 4
  store ptr %0, ptr %4, align 8
  store i64 %1, ptr %5, align 8
  call void @llvm.lifetime.start.p0(i64 8, ptr %6) #6
  store i64 0, ptr %6, align 8
  call void @llvm.lifetime.start.p0(i64 8, ptr %7) #6
  %11 = load ptr, ptr %4, align 8
  %12 = getelementptr inbounds nuw %struct.FreePageBtree, ptr %11, i32 0, i32 0
  %13 = getelementptr inbounds nuw %struct.FreePageBtreeHeader, ptr %12, i32 0, i32 1
  %14 = load i64, ptr %13, align 8
  store i64 %14, ptr %7, align 8
  br label %15

15:                                               ; preds = %48, %2
  %16 = load i64, ptr %6, align 8
  %17 = load i64, ptr %7, align 8
  %18 = icmp ult i64 %16, %17
  br i1 %18, label %19, label %49

19:                                               ; preds = %15
  call void @llvm.lifetime.start.p0(i64 8, ptr %8) #6
  %20 = load i64, ptr %6, align 8
  %21 = load i64, ptr %7, align 8
  %22 = add i64 %20, %21
  %23 = udiv i64 %22, 2
  store i64 %23, ptr %8, align 8
  call void @llvm.lifetime.start.p0(i64 8, ptr %9) #6
  %24 = load ptr, ptr %4, align 8
  %25 = getelementptr inbounds nuw %struct.FreePageBtree, ptr %24, i32 0, i32 1
  %26 = load i64, ptr %8, align 8
  %27 = getelementptr inbounds nuw [254 x %struct.FreePageBtreeLeafKey], ptr %25, i64 0, i64 %26
  %28 = getelementptr inbounds nuw %struct.FreePageBtreeLeafKey, ptr %27, i32 0, i32 0
  %29 = load i64, ptr %28, align 8
  store i64 %29, ptr %9, align 8
  %30 = load i64, ptr %5, align 8
  %31 = load i64, ptr %9, align 8
  %32 = icmp eq i64 %30, %31
  br i1 %32, label %33, label %35

33:                                               ; preds = %19
  %34 = load i64, ptr %8, align 8
  store i64 %34, ptr %3, align 8
  store i32 1, ptr %10, align 4
  br label %46

35:                                               ; preds = %19
  %36 = load i64, ptr %5, align 8
  %37 = load i64, ptr %9, align 8
  %38 = icmp ult i64 %36, %37
  br i1 %38, label %39, label %41

39:                                               ; preds = %35
  %40 = load i64, ptr %8, align 8
  store i64 %40, ptr %7, align 8
  br label %44

41:                                               ; preds = %35
  %42 = load i64, ptr %8, align 8
  %43 = add i64 %42, 1
  store i64 %43, ptr %6, align 8
  br label %44

44:                                               ; preds = %41, %39
  br label %45

45:                                               ; preds = %44
  store i32 0, ptr %10, align 4
  br label %46

46:                                               ; preds = %45, %33
  call void @llvm.lifetime.end.p0(i64 8, ptr %9) #6
  call void @llvm.lifetime.end.p0(i64 8, ptr %8) #6
  %47 = load i32, ptr %10, align 4
  switch i32 %47, label %51 [
    i32 0, label %48
  ]

48:                                               ; preds = %46
  br label %15, !llvm.loop !21

49:                                               ; preds = %15
  %50 = load i64, ptr %6, align 8
  store i64 %50, ptr %3, align 8
  store i32 1, ptr %10, align 4
  br label %51

51:                                               ; preds = %49, %46
  call void @llvm.lifetime.end.p0(i64 8, ptr %7) #6
  call void @llvm.lifetime.end.p0(i64 8, ptr %6) #6
  %52 = load i64, ptr %3, align 8
  ret i64 %52
}

; Function Attrs: nounwind uwtable
define internal i64 @FreePageBtreeSearchInternal(ptr noundef %0, i64 noundef %1) #0 {
  %3 = alloca i64, align 8
  %4 = alloca ptr, align 8
  %5 = alloca i64, align 8
  %6 = alloca i64, align 8
  %7 = alloca i64, align 8
  %8 = alloca i64, align 8
  %9 = alloca i64, align 8
  %10 = alloca i32, align 4
  store ptr %0, ptr %4, align 8
  store i64 %1, ptr %5, align 8
  call void @llvm.lifetime.start.p0(i64 8, ptr %6) #6
  store i64 0, ptr %6, align 8
  call void @llvm.lifetime.start.p0(i64 8, ptr %7) #6
  %11 = load ptr, ptr %4, align 8
  %12 = getelementptr inbounds nuw %struct.FreePageBtree, ptr %11, i32 0, i32 0
  %13 = getelementptr inbounds nuw %struct.FreePageBtreeHeader, ptr %12, i32 0, i32 1
  %14 = load i64, ptr %13, align 8
  store i64 %14, ptr %7, align 8
  br label %15

15:                                               ; preds = %48, %2
  %16 = load i64, ptr %6, align 8
  %17 = load i64, ptr %7, align 8
  %18 = icmp ult i64 %16, %17
  br i1 %18, label %19, label %49

19:                                               ; preds = %15
  call void @llvm.lifetime.start.p0(i64 8, ptr %8) #6
  %20 = load i64, ptr %6, align 8
  %21 = load i64, ptr %7, align 8
  %22 = add i64 %20, %21
  %23 = udiv i64 %22, 2
  store i64 %23, ptr %8, align 8
  call void @llvm.lifetime.start.p0(i64 8, ptr %9) #6
  %24 = load ptr, ptr %4, align 8
  %25 = getelementptr inbounds nuw %struct.FreePageBtree, ptr %24, i32 0, i32 1
  %26 = load i64, ptr %8, align 8
  %27 = getelementptr inbounds nuw [254 x %struct.FreePageBtreeInternalKey], ptr %25, i64 0, i64 %26
  %28 = getelementptr inbounds nuw %struct.FreePageBtreeInternalKey, ptr %27, i32 0, i32 0
  %29 = load i64, ptr %28, align 8
  store i64 %29, ptr %9, align 8
  %30 = load i64, ptr %5, align 8
  %31 = load i64, ptr %9, align 8
  %32 = icmp eq i64 %30, %31
  br i1 %32, label %33, label %35

33:                                               ; preds = %19
  %34 = load i64, ptr %8, align 8
  store i64 %34, ptr %3, align 8
  store i32 1, ptr %10, align 4
  br label %46

35:                                               ; preds = %19
  %36 = load i64, ptr %5, align 8
  %37 = load i64, ptr %9, align 8
  %38 = icmp ult i64 %36, %37
  br i1 %38, label %39, label %41

39:                                               ; preds = %35
  %40 = load i64, ptr %8, align 8
  store i64 %40, ptr %7, align 8
  br label %44

41:                                               ; preds = %35
  %42 = load i64, ptr %8, align 8
  %43 = add i64 %42, 1
  store i64 %43, ptr %6, align 8
  br label %44

44:                                               ; preds = %41, %39
  br label %45

45:                                               ; preds = %44
  store i32 0, ptr %10, align 4
  br label %46

46:                                               ; preds = %45, %33
  call void @llvm.lifetime.end.p0(i64 8, ptr %9) #6
  call void @llvm.lifetime.end.p0(i64 8, ptr %8) #6
  %47 = load i32, ptr %10, align 4
  switch i32 %47, label %51 [
    i32 0, label %48
  ]

48:                                               ; preds = %46
  br label %15, !llvm.loop !20

49:                                               ; preds = %15
  %50 = load i64, ptr %6, align 8
  store i64 %50, ptr %3, align 8
  store i32 1, ptr %10, align 4
  br label %51

51:                                               ; preds = %49, %46
  call void @llvm.lifetime.end.p0(i64 8, ptr %7) #6
  call void @llvm.lifetime.end.p0(i64 8, ptr %6) #6
  %52 = load i64, ptr %3, align 8
  ret i64 %52
}

; Function Attrs: nounwind uwtable
define internal void @FreePageBtreeSearch(ptr noundef %0, i64 noundef %1, ptr noundef %2) #0 {
  %4 = alloca ptr, align 8
  %5 = alloca i64, align 8
  %6 = alloca ptr, align 8
  %7 = alloca ptr, align 8
  %8 = alloca ptr, align 8
  %9 = alloca i32, align 4
  %10 = alloca i64, align 8
  %11 = alloca i32, align 4
  %12 = alloca ptr, align 8
  %13 = alloca i8, align 1
  %14 = alloca i32, align 4
  store ptr %0, ptr %4, align 8
  store i64 %1, ptr %5, align 8
  store ptr %2, ptr %6, align 8
  call void @llvm.lifetime.start.p0(i64 8, ptr %7) #6
  %15 = load ptr, ptr %4, align 8
  %16 = load ptr, ptr %4, align 8
  %17 = getelementptr inbounds nuw %struct.FreePageManager, ptr %16, i32 0, i32 0
  %18 = load i64, ptr %17, align 8
  %19 = sub i64 %18, 1
  %20 = sub i64 0, %19
  %21 = getelementptr inbounds i8, ptr %15, i64 %20
  store ptr %21, ptr %7, align 8
  call void @llvm.lifetime.start.p0(i64 8, ptr %8) #6
  br label %22

22:                                               ; preds = %3
  br label %23

23:                                               ; preds = %22
  br label %24

24:                                               ; preds = %23
  store i32 1, ptr %9, align 4
  %25 = load ptr, ptr %4, align 8
  %26 = getelementptr inbounds nuw %struct.FreePageManager, ptr %25, i32 0, i32 1
  %27 = load i64, ptr %26, align 8
  %28 = icmp eq i64 %27, 0
  br i1 %28, label %29, label %30

29:                                               ; preds = %24
  br label %37

30:                                               ; preds = %24
  %31 = load ptr, ptr %7, align 8
  %32 = load ptr, ptr %4, align 8
  %33 = getelementptr inbounds nuw %struct.FreePageManager, ptr %32, i32 0, i32 1
  %34 = load i64, ptr %33, align 8
  %35 = getelementptr inbounds nuw i8, ptr %31, i64 %34
  %36 = getelementptr inbounds i8, ptr %35, i64 -1
  br label %37

37:                                               ; preds = %30, %29
  %38 = phi ptr [ null, %29 ], [ %36, %30 ]
  store ptr %38, ptr %8, align 8
  call void @llvm.lifetime.start.p0(i64 8, ptr %10) #6
  %39 = load ptr, ptr %6, align 8
  %40 = getelementptr inbounds nuw %struct.FreePageBtreeSearchResult, ptr %39, i32 0, i32 3
  store i32 1, ptr %40, align 4
  %41 = load ptr, ptr %8, align 8
  %42 = icmp eq ptr %41, null
  br i1 %42, label %43, label %48

43:                                               ; preds = %37
  %44 = load ptr, ptr %6, align 8
  %45 = getelementptr inbounds nuw %struct.FreePageBtreeSearchResult, ptr %44, i32 0, i32 0
  store ptr null, ptr %45, align 8
  %46 = load ptr, ptr %6, align 8
  %47 = getelementptr inbounds nuw %struct.FreePageBtreeSearchResult, ptr %46, i32 0, i32 2
  store i8 0, ptr %47, align 8
  store i32 1, ptr %11, align 4
  br label %168

48:                                               ; preds = %37
  br label %49

49:                                               ; preds = %121, %48
  %50 = load ptr, ptr %8, align 8
  %51 = getelementptr inbounds nuw %struct.FreePageBtree, ptr %50, i32 0, i32 0
  %52 = getelementptr inbounds nuw %struct.FreePageBtreeHeader, ptr %51, i32 0, i32 0
  %53 = load i32, ptr %52, align 8
  %54 = icmp eq i32 %53, 430584521
  br i1 %54, label %55, label %124

55:                                               ; preds = %49
  call void @llvm.lifetime.start.p0(i64 8, ptr %12) #6
  call void @llvm.lifetime.start.p0(i64 1, ptr %13) #6
  %56 = load ptr, ptr %8, align 8
  %57 = load i64, ptr %5, align 8
  %58 = call i64 @FreePageBtreeSearchInternal(ptr noundef %56, i64 noundef %57)
  store i64 %58, ptr %10, align 8
  %59 = load i64, ptr %10, align 8
  %60 = load ptr, ptr %8, align 8
  %61 = getelementptr inbounds nuw %struct.FreePageBtree, ptr %60, i32 0, i32 0
  %62 = getelementptr inbounds nuw %struct.FreePageBtreeHeader, ptr %61, i32 0, i32 1
  %63 = load i64, ptr %62, align 8
  %64 = icmp ult i64 %59, %63
  br i1 %64, label %65, label %74

65:                                               ; preds = %55
  %66 = load ptr, ptr %8, align 8
  %67 = getelementptr inbounds nuw %struct.FreePageBtree, ptr %66, i32 0, i32 1
  %68 = load i64, ptr %10, align 8
  %69 = getelementptr inbounds nuw [254 x %struct.FreePageBtreeInternalKey], ptr %67, i64 0, i64 %68
  %70 = getelementptr inbounds nuw %struct.FreePageBtreeInternalKey, ptr %69, i32 0, i32 0
  %71 = load i64, ptr %70, align 8
  %72 = load i64, ptr %5, align 8
  %73 = icmp eq i64 %71, %72
  br label %74

74:                                               ; preds = %65, %55
  %75 = phi i1 [ false, %55 ], [ %73, %65 ]
  %76 = zext i1 %75 to i8
  store i8 %76, ptr %13, align 1
  %77 = load i8, ptr %13, align 1, !range !6, !noundef !7
  %78 = trunc i8 %77 to i1
  br i1 %78, label %85, label %79

79:                                               ; preds = %74
  %80 = load i64, ptr %10, align 8
  %81 = icmp ugt i64 %80, 0
  br i1 %81, label %82, label %85

82:                                               ; preds = %79
  %83 = load i64, ptr %10, align 8
  %84 = add i64 %83, -1
  store i64 %84, ptr %10, align 8
  br label %85

85:                                               ; preds = %82, %79, %74
  %86 = load ptr, ptr %8, align 8
  %87 = getelementptr inbounds nuw %struct.FreePageBtree, ptr %86, i32 0, i32 0
  %88 = getelementptr inbounds nuw %struct.FreePageBtreeHeader, ptr %87, i32 0, i32 1
  %89 = load i64, ptr %88, align 8
  %90 = icmp uge i64 %89, 254
  br i1 %90, label %91, label %96

91:                                               ; preds = %85
  %92 = load ptr, ptr %6, align 8
  %93 = getelementptr inbounds nuw %struct.FreePageBtreeSearchResult, ptr %92, i32 0, i32 3
  %94 = load i32, ptr %93, align 4
  %95 = add i32 %94, 1
  store i32 %95, ptr %93, align 4
  br label %99

96:                                               ; preds = %85
  %97 = load ptr, ptr %6, align 8
  %98 = getelementptr inbounds nuw %struct.FreePageBtreeSearchResult, ptr %97, i32 0, i32 3
  store i32 0, ptr %98, align 4
  br label %99

99:                                               ; preds = %96, %91
  br label %100

100:                                              ; preds = %99
  br label %101

101:                                              ; preds = %100
  br label %102

102:                                              ; preds = %101
  store i32 1, ptr %14, align 4
  %103 = load ptr, ptr %8, align 8
  %104 = getelementptr inbounds nuw %struct.FreePageBtree, ptr %103, i32 0, i32 1
  %105 = load i64, ptr %10, align 8
  %106 = getelementptr inbounds nuw [254 x %struct.FreePageBtreeInternalKey], ptr %104, i64 0, i64 %105
  %107 = getelementptr inbounds nuw %struct.FreePageBtreeInternalKey, ptr %106, i32 0, i32 1
  %108 = load i64, ptr %107, align 8
  %109 = icmp eq i64 %108, 0
  br i1 %109, label %110, label %111

110:                                              ; preds = %102
  br label %121

111:                                              ; preds = %102
  %112 = load ptr, ptr %7, align 8
  %113 = load ptr, ptr %8, align 8
  %114 = getelementptr inbounds nuw %struct.FreePageBtree, ptr %113, i32 0, i32 1
  %115 = load i64, ptr %10, align 8
  %116 = getelementptr inbounds nuw [254 x %struct.FreePageBtreeInternalKey], ptr %114, i64 0, i64 %115
  %117 = getelementptr inbounds nuw %struct.FreePageBtreeInternalKey, ptr %116, i32 0, i32 1
  %118 = load i64, ptr %117, align 8
  %119 = getelementptr inbounds nuw i8, ptr %112, i64 %118
  %120 = getelementptr inbounds i8, ptr %119, i64 -1
  br label %121

121:                                              ; preds = %111, %110
  %122 = phi ptr [ null, %110 ], [ %120, %111 ]
  store ptr %122, ptr %12, align 8
  %123 = load ptr, ptr %12, align 8
  store ptr %123, ptr %8, align 8
  call void @llvm.lifetime.end.p0(i64 1, ptr %13) #6
  call void @llvm.lifetime.end.p0(i64 8, ptr %12) #6
  br label %49, !llvm.loop !19

124:                                              ; preds = %49
  %125 = load ptr, ptr %8, align 8
  %126 = getelementptr inbounds nuw %struct.FreePageBtree, ptr %125, i32 0, i32 0
  %127 = getelementptr inbounds nuw %struct.FreePageBtreeHeader, ptr %126, i32 0, i32 1
  %128 = load i64, ptr %127, align 8
  %129 = icmp uge i64 %128, 254
  br i1 %129, label %130, label %135

130:                                              ; preds = %124
  %131 = load ptr, ptr %6, align 8
  %132 = getelementptr inbounds nuw %struct.FreePageBtreeSearchResult, ptr %131, i32 0, i32 3
  %133 = load i32, ptr %132, align 4
  %134 = add i32 %133, 1
  store i32 %134, ptr %132, align 4
  br label %138

135:                                              ; preds = %124
  %136 = load ptr, ptr %6, align 8
  %137 = getelementptr inbounds nuw %struct.FreePageBtreeSearchResult, ptr %136, i32 0, i32 3
  store i32 0, ptr %137, align 4
  br label %138

138:                                              ; preds = %135, %130
  %139 = load ptr, ptr %8, align 8
  %140 = load i64, ptr %5, align 8
  %141 = call i64 @FreePageBtreeSearchLeaf(ptr noundef %139, i64 noundef %140)
  store i64 %141, ptr %10, align 8
  %142 = load ptr, ptr %8, align 8
  %143 = load ptr, ptr %6, align 8
  %144 = getelementptr inbounds nuw %struct.FreePageBtreeSearchResult, ptr %143, i32 0, i32 0
  store ptr %142, ptr %144, align 8
  %145 = load i64, ptr %10, align 8
  %146 = load ptr, ptr %6, align 8
  %147 = getelementptr inbounds nuw %struct.FreePageBtreeSearchResult, ptr %146, i32 0, i32 1
  store i64 %145, ptr %147, align 8
  %148 = load i64, ptr %10, align 8
  %149 = load ptr, ptr %8, align 8
  %150 = getelementptr inbounds nuw %struct.FreePageBtree, ptr %149, i32 0, i32 0
  %151 = getelementptr inbounds nuw %struct.FreePageBtreeHeader, ptr %150, i32 0, i32 1
  %152 = load i64, ptr %151, align 8
  %153 = icmp ult i64 %148, %152
  br i1 %153, label %154, label %163

154:                                              ; preds = %138
  %155 = load i64, ptr %5, align 8
  %156 = load ptr, ptr %8, align 8
  %157 = getelementptr inbounds nuw %struct.FreePageBtree, ptr %156, i32 0, i32 1
  %158 = load i64, ptr %10, align 8
  %159 = getelementptr inbounds nuw [254 x %struct.FreePageBtreeLeafKey], ptr %157, i64 0, i64 %158
  %160 = getelementptr inbounds nuw %struct.FreePageBtreeLeafKey, ptr %159, i32 0, i32 0
  %161 = load i64, ptr %160, align 8
  %162 = icmp eq i64 %155, %161
  br label %163

163:                                              ; preds = %154, %138
  %164 = phi i1 [ false, %138 ], [ %162, %154 ]
  %165 = load ptr, ptr %6, align 8
  %166 = getelementptr inbounds nuw %struct.FreePageBtreeSearchResult, ptr %165, i32 0, i32 2
  %167 = zext i1 %164 to i8
  store i8 %167, ptr %166, align 8
  store i32 0, ptr %11, align 4
  br label %168

168:                                              ; preds = %163, %43
  call void @llvm.lifetime.end.p0(i64 8, ptr %10) #6
  call void @llvm.lifetime.end.p0(i64 8, ptr %8) #6
  call void @llvm.lifetime.end.p0(i64 8, ptr %7) #6
  %169 = load i32, ptr %11, align 4
  switch i32 %169, label %171 [
    i32 0, label %170
    i32 1, label %170
  ]

170:                                              ; preds = %168, %168
  ret void

171:                                              ; preds = %168
  unreachable
}