; Function Attrs: nofree norecurse nosync nounwind memory(argmem: readwrite) uwtable
define internal fastcc void @FreePageBtreeSearch(ptr noundef %0, i64 noundef %1, ptr noundef nonnull writeonly captures(none) initializes((20, 24)) %2) unnamed_addr #6 {
  %4 = load i64, ptr %0, align 8
  %5 = getelementptr inbounds nuw i8, ptr %0, i64 8
  %6 = load i64, ptr %5, align 8
  %7 = icmp eq i64 %6, 0
  %8 = getelementptr inbounds nuw i8, ptr %2, i64 20
  store i32 1, ptr %8, align 4
  br i1 %7, label %15, label %.preheader

.preheader:                                       ; preds = %3
  %9 = sub i64 1, %4
  %10 = getelementptr inbounds i8, ptr %0, i64 %9
  %11 = getelementptr inbounds nuw i8, ptr %10, i64 %6
  %12 = getelementptr inbounds i8, ptr %11, i64 -1
  %invariant.gep = getelementptr i8, ptr %10, i64 -1
  %13 = load i32, ptr %12, align 8
  %14 = icmp eq i32 %13, 430584521
  br i1 %14, label %.lr.ph, label %._crit_edge

15:                                               ; preds = %3
  store ptr null, ptr %2, align 8
  br label %67

.lr.ph:                                           ; preds = %.preheader, %33
  %storemerge5058 = phi i32 [ %spec.select59, %33 ], [ 1, %.preheader ]
  %.057 = phi ptr [ %gep, %33 ], [ %12, %.preheader ]
  %16 = getelementptr inbounds nuw i8, ptr %.057, i64 8
  %17 = load i64, ptr %16, align 8
  %18 = getelementptr inbounds nuw i8, ptr %.057, i64 24
  br label %19

19:                                               ; preds = %21, %.lr.ph
  %.020.i = phi i64 [ %17, %.lr.ph ], [ %.222.i, %21 ]
  %.017.i = phi i64 [ 0, %.lr.ph ], [ %.219.i, %21 ]
  %20 = icmp ult i64 %.017.i, %.020.i
  br i1 %20, label %21, label %FreePageBtreeSearchInternal.exit

21:                                               ; preds = %19
  %22 = add i64 %.017.i, %.020.i
  %23 = lshr i64 %22, 1
  %24 = getelementptr inbounds nuw [254 x %struct.FreePageBtreeInternalKey], ptr %18, i64 0, i64 %23
  %25 = load i64, ptr %24, align 8
  %.not.i = icmp eq i64 %1, %25
  %26 = icmp ult i64 %1, %25
  %27 = add nuw i64 %23, 1
  %.222.i = select i1 %26, i64 %23, i64 %.020.i
  %.219.i = select i1 %26, i64 %.017.i, i64 %27
  br i1 %.not.i, label %FreePageBtreeSearchInternal.exit, label %19, !llvm.loop !11

FreePageBtreeSearchInternal.exit:                 ; preds = %19, %21
  %.2.i = phi i64 [ %23, %21 ], [ %.017.i, %19 ]
  %28 = icmp ult i64 %.2.i, %17
  br i1 %28, label %29, label %33

29:                                               ; preds = %FreePageBtreeSearchInternal.exit
  %30 = getelementptr inbounds nuw [254 x %struct.FreePageBtreeInternalKey], ptr %18, i64 0, i64 %.2.i
  %31 = load i64, ptr %30, align 8
  %32 = icmp ne i64 %31, %1
  br label %33

33:                                               ; preds = %29, %FreePageBtreeSearchInternal.exit
  %.not = phi i1 [ true, %FreePageBtreeSearchInternal.exit ], [ %32, %29 ]
  %34 = icmp ne i64 %.2.i, 0
  %or.cond = and i1 %34, %.not
  %35 = sext i1 %or.cond to i64
  %spec.select = add i64 %.2.i, %35
  %36 = icmp ugt i64 %17, 253
  %37 = add i32 %storemerge5058, 1
  %spec.select59 = select i1 %36, i32 %37, i32 0
  store i32 %spec.select59, ptr %8, align 4
  %.idx = shl nuw nsw i64 %spec.select, 4
  %38 = getelementptr i8, ptr %.057, i64 32
  %39 = getelementptr i8, ptr %38, i64 %.idx
  %40 = load i64, ptr %39, align 8
  %gep = getelementptr i8, ptr %invariant.gep, i64 %40
  %41 = load i32, ptr %gep, align 8
  %42 = icmp eq i32 %41, 430584521
  br i1 %42, label %.lr.ph, label %._crit_edge.loopexit, !llvm.loop !19

._crit_edge.loopexit:                             ; preds = %33
  %43 = add i32 %spec.select59, 1
  br label %._crit_edge

._crit_edge:                                      ; preds = %._crit_edge.loopexit, %.preheader
  %44 = phi i32 [ 2, %.preheader ], [ %43, %._crit_edge.loopexit ]
  %.0.lcssa = phi ptr [ %12, %.preheader ], [ %gep, %._crit_edge.loopexit ]
  %45 = getelementptr inbounds nuw i8, ptr %.0.lcssa, i64 8
  %46 = load i64, ptr %45, align 8
  %47 = icmp ugt i64 %46, 253
  %spec.select60 = select i1 %47, i32 %44, i32 0
  store i32 %spec.select60, ptr %8, align 4
  %48 = load i64, ptr %45, align 8
  %49 = getelementptr inbounds nuw i8, ptr %.0.lcssa, i64 24
  br label %50

50:                                               ; preds = %52, %._crit_edge
  %.020.i51 = phi i64 [ %48, %._crit_edge ], [ %.222.i55, %52 ]
  %.017.i52 = phi i64 [ 0, %._crit_edge ], [ %.219.i56, %52 ]
  %51 = icmp ult i64 %.017.i52, %.020.i51
  br i1 %51, label %52, label %FreePageBtreeSearchLeaf.exit

52:                                               ; preds = %50
  %53 = add i64 %.017.i52, %.020.i51
  %54 = lshr i64 %53, 1
  %55 = getelementptr inbounds nuw [254 x %struct.FreePageBtreeLeafKey], ptr %49, i64 0, i64 %54
  %56 = load i64, ptr %55, align 8
  %.not.i54 = icmp eq i64 %1, %56
  %57 = icmp ult i64 %1, %56
  %58 = add nuw i64 %54, 1
  %.222.i55 = select i1 %57, i64 %54, i64 %.020.i51
  %.219.i56 = select i1 %57, i64 %.017.i52, i64 %58
  br i1 %.not.i54, label %FreePageBtreeSearchLeaf.exit, label %50, !llvm.loop !15

FreePageBtreeSearchLeaf.exit:                     ; preds = %50, %52
  %.2.i53 = phi i64 [ %54, %52 ], [ %.017.i52, %50 ]
  store ptr %.0.lcssa, ptr %2, align 8
  %59 = getelementptr inbounds nuw i8, ptr %2, i64 8
  store i64 %.2.i53, ptr %59, align 8
  %60 = load i64, ptr %45, align 8
  %61 = icmp ult i64 %.2.i53, %60
  br i1 %61, label %62, label %67

62:                                               ; preds = %FreePageBtreeSearchLeaf.exit
  %63 = getelementptr inbounds nuw [254 x %struct.FreePageBtreeLeafKey], ptr %49, i64 0, i64 %.2.i53
  %64 = load i64, ptr %63, align 8
  %65 = icmp eq i64 %1, %64
  %66 = zext i1 %65 to i8
  br label %67

67:                                               ; preds = %FreePageBtreeSearchLeaf.exit, %62, %15
  %.sink = phi i8 [ 0, %15 ], [ 0, %FreePageBtreeSearchLeaf.exit ], [ %66, %62 ]
  %68 = getelementptr inbounds nuw i8, ptr %2, i64 16
  store i8 %.sink, ptr %68, align 8
  ret void
}